ccopy_reg
_reconstructor
p0
(cpandas.core.frame
DataFrame
p1
c__builtin__
object
p2
Ntp3
Rp4
(dp5
S'_metadata'
p6
(lp7
sS'_typ'
p8
S'dataframe'
p9
sS'_data'
p10
g0
(cpandas.core.internals
BlockManager
p11
g2
Ntp12
Rp13
((lp14
cpandas.core.indexes.base
_new_Index
p15
(cpandas.core.indexes.base
Index
p16
(dp17
S'data'
p18
cnumpy.core.multiarray
_reconstruct
p19
(cnumpy
ndarray
p20
(I0
tp21
S'b'
p22
tp23
Rp24
(I1
(I14
tp25
cnumpy
dtype
p26
(S'O8'
p27
I0
I1
tp28
Rp29
(I3
S'|'
p30
NNNI-1
I-1
I63
tp31
bI00
(lp32
S'year'
p33
aS'type'
p34
aS'procOriginal'
p35
aS'proc'
p36
aS'proc_s0'
p37
aS'cat'
p38
aS'inputWSFile'
p39
aS'nominalDataName'
p40
aS'modelWSFile'
p41
aS'model'
p42
aS'rate'
p43
aS'nominal_yield'
p44
aS'sumw2'
p45
aS'nominal_yield_COWCorr'
p46
atp47
bsS'name'
p48
Nstp49
Rp50
ag15
(g16
(dp51
g18
g19
(g20
(I0
tp52
g22
tp53
Rp54
(I1
(I0
tp55
g29
I00
(lp56
tp57
bsg48
Nstp58
Rp59
a(lp60
g19
(g20
(I0
tp61
g22
tp62
Rp63
(I1
(I14
I0
tp64
g29
I00
(lp65
tp66
ba(lp67
g15
(g16
(dp68
g18
g19
(g20
(I0
tp69
g22
tp70
Rp71
(I1
(I14
tp72
g29
I00
(lp73
g33
ag34
ag35
ag36
ag37
ag38
ag39
ag40
ag41
ag42
ag43
ag44
ag45
ag46
atp74
bsg48
Nstp75
Rp76
a(dp77
S'0.14.1'
p78
(dp79
S'axes'
p80
g14
sS'blocks'
p81
(lp82
(dp83
S'mgr_locs'
p84
c__builtin__
slice
p85
(I0
I14
I1
tp86
Rp87
sS'values'
p88
g63
sasstp89
bsb.