ccopy_reg
_reconstructor
p0
(cpandas.core.frame
DataFrame
p1
c__builtin__
object
p2
Ntp3
Rp4
(dp5
S'_metadata'
p6
(lp7
sS'_typ'
p8
S'dataframe'
p9
sS'_data'
p10
g0
(cpandas.core.internals
BlockManager
p11
g2
Ntp12
Rp13
((lp14
cpandas.core.indexes.base
_new_Index
p15
(cpandas.core.indexes.base
Index
p16
(dp17
S'data'
p18
cnumpy.core.multiarray
_reconstruct
p19
(cnumpy
ndarray
p20
(I0
tp21
S'b'
p22
tp23
Rp24
(I1
(I14
tp25
cnumpy
dtype
p26
(S'O8'
p27
I0
I1
tp28
Rp29
(I3
S'|'
p30
NNNI-1
I-1
I63
tp31
bI00
(lp32
S'year'
p33
aS'type'
p34
aS'procOriginal'
p35
aS'proc'
p36
aS'proc_s0'
p37
aS'cat'
p38
aS'inputWSFile'
p39
aS'nominalDataName'
p40
aS'modelWSFile'
p41
aS'model'
p42
aS'rate'
p43
aS'nominal_yield'
p44
aS'sumw2'
p45
aS'nominal_yield_COWCorr'
p46
atp47
bsS'name'
p48
Nstp49
Rp50
ag15
(cpandas.core.indexes.numeric
Int64Index
p51
(dp52
g18
g19
(g20
(I0
tp53
g22
tp54
Rp55
(I1
(I6
tp56
g26
(S'i8'
p57
I0
I1
tp58
Rp59
(I3
S'<'
p60
NNNI-1
I-1
I0
tp61
bI00
S'\x00\x00\x00\x00\x00\x00\x00\x00\x01\x00\x00\x00\x00\x00\x00\x00\x02\x00\x00\x00\x00\x00\x00\x00\x03\x00\x00\x00\x00\x00\x00\x00\x04\x00\x00\x00\x00\x00\x00\x00\x05\x00\x00\x00\x00\x00\x00\x00'
p62
tp63
bsg48
Nstp64
Rp65
a(lp66
g19
(g20
(I0
tp67
g22
tp68
Rp69
(I1
(I1
I6
tp70
g26
(S'f8'
p71
I0
I1
tp72
Rp73
(I3
S'<'
p74
NNNI-1
I-1
I0
tp75
bI00
S'\x00\x00\x00\x00\x00A\xe4@\x00\x00\x00\x00\x00A\xe4@\x00\x00\x00\x00\x00A\xe4@\x00\x00\x00\x00\x00A\xe4@\x00\x00\x00\x00\x00\x00\xf0?\x00\x00\x00\x00\x00\x00\xf0\xbf'
p76
tp77
bag19
(g20
(I0
tp78
g22
tp79
Rp80
(I1
(I13
I6
tp81
g29
I00
(lp82
S'2017'
p83
ag83
ag83
ag83
ag33
ag33
aS'sig'
p84
ag84
ag84
ag84
aS'bkg'
p85
ag18
aS'GG2H'
p86
aS'QQ2HLNU'
p87
aS'TTH'
p88
aS'VBF'
p89
aS'bkg_mass'
p90
aS'data_obs'
p91
aS'ggH_2017_hgg'
p92
aS'WH_lep_2017_hgg'
p93
aS'ttH_2017_hgg'
p94
aS'qqH_2017_hgg'
p95
ag90
ag91
aS'ggh'
p96
aS'wh'
p97
aS'tth'
p98
aS'vbf'
p99
aS'-'
p100
ag100
aS'UntaggedTag_0_2017'
p101
aS'UntaggedTag_0_2017'
p102
aS'UntaggedTag_0_2017'
p103
aS'UntaggedTag_0_2017'
p104
aS'UntaggedTag_0_2017'
p105
ag105
aS'/eos/home-n/nschroed/Higgs_Mass_UL/WorkspaceTest/Pass2/2017/Sig/workspaces/output_GluGluHToGG_M125_TuneCP5_13TeV-amcatnloFXFX-pythia8_GG2H.root'
p106
aS'/eos/home-n/nschroed/Higgs_Mass_UL/WorkspaceTest/Pass2/2017/Sig/workspaces/output_WHToGG_M125_TuneCP5_13TeV-amcatnloFXFX-madspin-pythia8_QQ2HLNU.root'
p107
aS'/eos/home-n/nschroed/Higgs_Mass_UL/WorkspaceTest/Pass2/2017/Sig/workspaces/output_ttHJetToGG_M125_TuneCP5_13TeV-amcatnloFXFX-madspin-pythia8_TTH.root'
p108
aS'/eos/home-n/nschroed/Higgs_Mass_UL/WorkspaceTest/Pass2/2017/Sig/workspaces/output_VBFHToGG_M125_TuneCP5_13TeV-amcatnlo-pythia8_VBF.root'
p109
ag100
ag100
aS'ggh_125_13TeV_UntaggedTag_0'
p110
aS'wh_125_13TeV_UntaggedTag_0'
p111
aS'tth_125_13TeV_UntaggedTag_0'
p112
aS'vbf_125_13TeV_UntaggedTag_0'
p113
ag100
ag100
aS'./Models/signal/CMS-HGG_sigfit_packaged_UntaggedTag_0_2017.root'
p114
aS'./Models/signal/CMS-HGG_sigfit_packaged_UntaggedTag_0_2017.root'
p115
aS'./Models/signal/CMS-HGG_sigfit_packaged_UntaggedTag_0_2017.root'
p116
aS'./Models/signal/CMS-HGG_sigfit_packaged_UntaggedTag_0_2017.root'
p117
aS'./Models/background/CMS-HGG_multipdf_UntaggedTag_0_2017.root'
p118
ag118
aS'wsig_13TeV:hggpdfsmrel_GG2H_2017_UntaggedTag_0_13TeV'
p119
aS'wsig_13TeV:hggpdfsmrel_QQ2HLNU_2017_UntaggedTag_0_13TeV'
p120
aS'wsig_13TeV:hggpdfsmrel_TTH_2017_UntaggedTag_0_13TeV'
p121
aS'wsig_13TeV:hggpdfsmrel_VBF_2017_UntaggedTag_0_13TeV'
p122
aS'multipdf:CMS_hgg_UntaggedTag_0_2017_13TeV_bkgshape'
p123
aS'multipdf:roohist_data_mass_UntaggedTag_0'
p124
aF0.9141856682031175
aF0.11248173934109218
aF0.08738499217133722
aF0.35554432252365586
ag100
ag100
aF0.00014393684937719707
aF3.7489046084900043e-06
aF2.2451525361017527e-06
aF1.5629815960796396e-05
ag100
ag100
aF0.9141856682031175
aF0.11248173934109218
aF0.08738499217133722
aF0.35554432252365586
ag100
ag100
atp125
ba(lp126
g15
(g16
(dp127
g18
g19
(g20
(I0
tp128
g22
tp129
Rp130
(I1
(I1
tp131
g29
I00
(lp132
g43
atp133
bsg48
Nstp134
Rp135
ag15
(g16
(dp136
g18
g19
(g20
(I0
tp137
g22
tp138
Rp139
(I1
(I13
tp140
g29
I00
(lp141
g33
ag34
ag35
ag36
ag37
ag38
ag39
ag40
ag41
ag42
ag44
ag45
ag46
atp142
bsg48
Nstp143
Rp144
a(dp145
S'0.14.1'
p146
(dp147
S'axes'
p148
g14
sS'blocks'
p149
(lp150
(dp151
S'mgr_locs'
p152
c__builtin__
slice
p153
(I10
I11
I1
tp154
Rp155
sS'values'
p156
g69
sa(dp157
g152
g19
(g20
(I0
tp158
g22
tp159
Rp160
(I1
(I13
tp161
g59
I00
S'\x00\x00\x00\x00\x00\x00\x00\x00\x01\x00\x00\x00\x00\x00\x00\x00\x02\x00\x00\x00\x00\x00\x00\x00\x03\x00\x00\x00\x00\x00\x00\x00\x04\x00\x00\x00\x00\x00\x00\x00\x05\x00\x00\x00\x00\x00\x00\x00\x06\x00\x00\x00\x00\x00\x00\x00\x07\x00\x00\x00\x00\x00\x00\x00\x08\x00\x00\x00\x00\x00\x00\x00\t\x00\x00\x00\x00\x00\x00\x00\x0b\x00\x00\x00\x00\x00\x00\x00\x0c\x00\x00\x00\x00\x00\x00\x00\r\x00\x00\x00\x00\x00\x00\x00'
p162
tp163
bsg156
g80
sasstp164
bsb.