ccopy_reg
_reconstructor
p0
(cpandas.core.frame
DataFrame
p1
c__builtin__
object
p2
Ntp3
Rp4
(dp5
S'_metadata'
p6
(lp7
sS'_typ'
p8
S'dataframe'
p9
sS'_data'
p10
g0
(cpandas.core.internals
BlockManager
p11
g2
Ntp12
Rp13
((lp14
cpandas.core.indexes.base
_new_Index
p15
(cpandas.core.indexes.base
Index
p16
(dp17
S'data'
p18
cnumpy.core.multiarray
_reconstruct
p19
(cnumpy
ndarray
p20
(I0
tp21
S'b'
p22
tp23
Rp24
(I1
(I88
tp25
cnumpy
dtype
p26
(S'O8'
p27
I0
I1
tp28
Rp29
(I3
S'|'
p30
NNNI-1
I-1
I63
tp31
bI00
(lp32
S'year'
p33
aS'type'
p34
aS'procOriginal'
p35
aS'proc'
p36
aS'proc_s0'
p37
aS'cat'
p38
aS'inputWSFile'
p39
aS'nominalDataName'
p40
aS'modelWSFile'
p41
aS'model'
p42
aS'rate'
p43
aS'nominal_yield'
p44
aS'sumw2'
p45
aS'nominal_yield_COWCorr'
p46
aS'LooseMvaSF_up_yield'
p47
aS'LooseMvaSF_down_yield'
p48
aS'PreselSF_up_yield'
p49
aS'PreselSF_down_yield'
p50
aS'electronVetoSF_up_yield'
p51
aS'electronVetoSF_down_yield'
p52
aS'TriggerWeight_up_yield'
p53
aS'TriggerWeight_down_yield'
p54
aS'MuonIDWeight_up_yield'
p55
aS'MuonIDWeight_down_yield'
p56
aS'MuonIsoWeight_up_yield'
p57
aS'MuonIsoWeight_down_yield'
p58
aS'ElectronIDWeight_up_yield'
p59
aS'ElectronIDWeight_down_yield'
p60
aS'ElectronRecoWeight_up_yield'
p61
aS'ElectronRecoWeight_down_yield'
p62
aS'JetBTagCutWeight_up_yield'
p63
aS'JetBTagCutWeight_down_yield'
p64
aS'JetBTagReshapeWeight_up_yield'
p65
aS'JetBTagReshapeWeight_down_yield'
p66
aS'SigmaEOverEShift_up_yield'
p67
aS'SigmaEOverEShift_down_yield'
p68
aS'MvaShift_up_yield'
p69
aS'MvaShift_down_yield'
p70
aS'PUJIDShift_up_yield'
p71
aS'PUJIDShift_down_yield'
p72
aS'JEC_up_yield'
p73
aS'JEC_down_yield'
p74
aS'JER_up_yield'
p75
aS'JER_down_yield'
p76
aS'metJecUncertainty_up_yield'
p77
aS'metJecUncertainty_down_yield'
p78
aS'metJerUncertainty_up_yield'
p79
aS'metJerUncertainty_down_yield'
p80
aS'metPhoUncertainty_up_yield'
p81
aS'metPhoUncertainty_down_yield'
p82
aS'metUncUncertainty_up_yield'
p83
aS'metUncUncertainty_down_yield'
p84
aS'THU_ggH_Mu_up_yield'
p85
aS'THU_ggH_Mu_down_yield'
p86
aS'THU_ggH_Mu_up_yield_COWCorr'
p87
aS'THU_ggH_Mu_down_yield_COWCorr'
p88
aS'THU_ggH_Res_up_yield'
p89
aS'THU_ggH_Res_down_yield'
p90
aS'THU_ggH_Res_up_yield_COWCorr'
p91
aS'THU_ggH_Res_down_yield_COWCorr'
p92
aS'THU_ggH_Mig01_up_yield'
p93
aS'THU_ggH_Mig01_down_yield'
p94
aS'THU_ggH_Mig01_up_yield_COWCorr'
p95
aS'THU_ggH_Mig01_down_yield_COWCorr'
p96
aS'THU_ggH_Mig12_up_yield'
p97
aS'THU_ggH_Mig12_down_yield'
p98
aS'THU_ggH_Mig12_up_yield_COWCorr'
p99
aS'THU_ggH_Mig12_down_yield_COWCorr'
p100
aS'THU_ggH_VBF2j_up_yield'
p101
aS'THU_ggH_VBF2j_down_yield'
p102
aS'THU_ggH_VBF2j_up_yield_COWCorr'
p103
aS'THU_ggH_VBF2j_down_yield_COWCorr'
p104
aS'THU_ggH_VBF3j_up_yield'
p105
aS'THU_ggH_VBF3j_down_yield'
p106
aS'THU_ggH_VBF3j_up_yield_COWCorr'
p107
aS'THU_ggH_VBF3j_down_yield_COWCorr'
p108
aS'THU_ggH_PT60_up_yield'
p109
aS'THU_ggH_PT60_down_yield'
p110
aS'THU_ggH_PT60_up_yield_COWCorr'
p111
aS'THU_ggH_PT60_down_yield_COWCorr'
p112
aS'THU_ggH_PT120_up_yield'
p113
aS'THU_ggH_PT120_down_yield'
p114
aS'THU_ggH_PT120_up_yield_COWCorr'
p115
aS'THU_ggH_PT120_down_yield_COWCorr'
p116
aS'THU_ggH_qmtop_up_yield'
p117
aS'THU_ggH_qmtop_down_yield'
p118
aS'THU_ggH_qmtop_up_yield_COWCorr'
p119
aS'THU_ggH_qmtop_down_yield_COWCorr'
p120
atp121
bsS'name'
p122
Nstp123
Rp124
ag15
(cpandas.core.indexes.numeric
Int64Index
p125
(dp126
g18
g19
(g20
(I0
tp127
g22
tp128
Rp129
(I1
(I6
tp130
g26
(S'i8'
p131
I0
I1
tp132
Rp133
(I3
S'<'
p134
NNNI-1
I-1
I0
tp135
bI00
S'\x00\x00\x00\x00\x00\x00\x00\x00\x01\x00\x00\x00\x00\x00\x00\x00\x02\x00\x00\x00\x00\x00\x00\x00\x03\x00\x00\x00\x00\x00\x00\x00\x04\x00\x00\x00\x00\x00\x00\x00\x05\x00\x00\x00\x00\x00\x00\x00'
p136
tp137
bsg122
Nstp138
Rp139
a(lp140
g19
(g20
(I0
tp141
g22
tp142
Rp143
(I1
(I1
I6
tp144
g26
(S'f8'
p145
I0
I1
tp146
Rp147
(I3
S'<'
p148
NNNI-1
I-1
I0
tp149
bI00
S'\x00\x00\x00\x00\x00A\xe4@\x00\x00\x00\x00\x00A\xe4@\x00\x00\x00\x00\x00A\xe4@\x00\x00\x00\x00\x00A\xe4@\x00\x00\x00\x00\x00\x00\xf0?\x00\x00\x00\x00\x00\x00\xf0\xbf'
p150
tp151
bag19
(g20
(I0
tp152
g22
tp153
Rp154
(I1
(I87
I6
tp155
g29
I00
(lp156
S'2017'
p157
ag157
ag157
ag157
ag33
ag33
aS'sig'
p158
ag158
ag158
ag158
aS'bkg'
p159
ag18
aS'GG2H'
p160
aS'QQ2HLNU'
p161
aS'TTH'
p162
aS'VBF'
p163
aS'bkg_mass'
p164
aS'data_obs'
p165
aS'ggH_2017_hgg'
p166
aS'WH_lep_2017_hgg'
p167
aS'ttH_2017_hgg'
p168
aS'qqH_2017_hgg'
p169
ag164
ag165
aS'ggh'
p170
aS'wh'
p171
aS'tth'
p172
aS'vbf'
p173
aS'-'
p174
ag174
aS'UntaggedTag_1_2017'
p175
aS'UntaggedTag_1_2017'
p176
aS'UntaggedTag_1_2017'
p177
aS'UntaggedTag_1_2017'
p178
aS'UntaggedTag_1_2017'
p179
ag179
aS'/eos/home-n/nschroed/Higgs_Mass_UL/WorkspaceTest/Pass2/2017/Sig/workspaces/output_GluGluHToGG_M125_TuneCP5_13TeV-amcatnloFXFX-pythia8_GG2H.root'
p180
aS'/eos/home-n/nschroed/Higgs_Mass_UL/WorkspaceTest/Pass2/2017/Sig/workspaces/output_WHToGG_M125_TuneCP5_13TeV-amcatnloFXFX-madspin-pythia8_QQ2HLNU.root'
p181
aS'/eos/home-n/nschroed/Higgs_Mass_UL/WorkspaceTest/Pass2/2017/Sig/workspaces/output_ttHJetToGG_M125_TuneCP5_13TeV-amcatnloFXFX-madspin-pythia8_TTH.root'
p182
aS'/eos/home-n/nschroed/Higgs_Mass_UL/WorkspaceTest/Pass2/2017/Sig/workspaces/output_VBFHToGG_M125_TuneCP5_13TeV-amcatnlo-pythia8_VBF.root'
p183
ag174
ag174
aS'ggh_125_13TeV_UntaggedTag_1'
p184
aS'wh_125_13TeV_UntaggedTag_1'
p185
aS'tth_125_13TeV_UntaggedTag_1'
p186
aS'vbf_125_13TeV_UntaggedTag_1'
p187
ag174
ag174
aS'./Models/signal/CMS-HGG_sigfit_packaged_UntaggedTag_1_2017.root'
p188
aS'./Models/signal/CMS-HGG_sigfit_packaged_UntaggedTag_1_2017.root'
p189
aS'./Models/signal/CMS-HGG_sigfit_packaged_UntaggedTag_1_2017.root'
p190
aS'./Models/signal/CMS-HGG_sigfit_packaged_UntaggedTag_1_2017.root'
p191
aS'./Models/background/CMS-HGG_multipdf_UntaggedTag_1_2017.root'
p192
ag192
aS'wsig_13TeV:hggpdfsmrel_GG2H_2017_UntaggedTag_1_13TeV'
p193
aS'wsig_13TeV:hggpdfsmrel_QQ2HLNU_2017_UntaggedTag_1_13TeV'
p194
aS'wsig_13TeV:hggpdfsmrel_TTH_2017_UntaggedTag_1_13TeV'
p195
aS'wsig_13TeV:hggpdfsmrel_VBF_2017_UntaggedTag_1_13TeV'
p196
aS'multipdf:CMS_hgg_UntaggedTag_1_2017_13TeV_bkgshape'
p197
aS'multipdf:roohist_data_mass_UntaggedTag_1'
p198
aF6.687740732777812
aF0.29755539679536014
aF0.15194288676684664
aF0.9954419309951845
ag174
ag174
aF0.001177870801988068
aF9.303718899963202e-06
aF3.7633861816193378e-06
aF4.525931073368684e-05
ag174
ag174
aF6.687740732777812
aF0.29755539679536014
aF0.15194288676684664
aF0.9954419309951845
ag174
ag174
aF6.315641237074994
aF0.2875684570267504
aF0.14711176153510946
aF0.9621395754051868
ag174
ag174
aF6.227217084721738
aF0.28378037966027414
aF0.1451013759080665
aF0.9492716723085527
ag174
ag174
aF6.362404093538942
aF0.28979785532964936
aF0.1483044901543688
aF0.970098371478788
ag174
ag174
aF6.180967361468844
aF0.2815748058306428
aF0.14392167314212953
aF0.9414007109871524
ag174
ag174
aF6.286584461117526
aF0.2865560321954771
aF0.14650102302527632
aF0.9585126984755188
ag174
ag174
aF6.256136698104966
aF0.284788001681532
aF0.14570917315902052
aF0.952881319503472
ag174
ag174
aF6.2948515051214615
aF0.2865226121036562
aF0.14649649077426996
aF0.9584672559029589
ag174
ag174
aF6.247885249826056
aF0.2848210507822398
aF0.1457136694024936
aF0.9529259191709519
ag174
ag174
aF6.687740732777812
aF0.29755539679536014
aF0.15194288676684664
aF0.9954419309951845
ag174
ag174
aF6.687740732777812
aF0.29755539679536014
aF0.15194288676684664
aF0.9954419309951845
ag174
ag174
aF6.687740732777812
aF0.29755539679536014
aF0.15194288676684664
aF0.9954419309951845
ag174
ag174
aF6.687740732777812
aF0.29755539679536014
aF0.15194288676684664
aF0.9954419309951845
ag174
ag174
aF6.687740732777812
aF0.29755539679536014
aF0.15194288676684664
aF0.9954419309951845
ag174
ag174
aF6.687740732777812
aF0.29755539679536014
aF0.15194288676684664
aF0.9954419309951845
ag174
ag174
aF6.687740732777812
aF0.29755539679536014
aF0.15194288676684664
aF0.9954419309951845
ag174
ag174
aF6.687740732777812
aF0.29755539679536014
aF0.15194288676684664
aF0.9954419309951845
ag174
ag174
aF6.687740732777812
aF0.29755539679536014
aF0.15194288676684664
aF0.9954419309951845
ag174
ag174
aF6.687740732777812
aF0.29755539679536014
aF0.15194288676684664
aF0.9954419309951845
ag174
ag174
aF6.687740732777812
aF0.29755539679536014
aF0.15194288676684664
aF0.9954419309951845
ag174
ag174
aF6.687740732777812
aF0.29755539679536014
aF0.15194288676684664
aF0.9954419309951845
ag174
ag174
aF6.839080247111269
aF0.2914795059332391
aF0.14974799311085008
aF0.9773507121644798
ag174
ag174
aF7.162978924719937
aF0.30312851531380147
aF0.15429401659957875
aF1.0151616389393894
ag174
ag174
aF7.139240577791497
aF0.30259483880308835
aF0.15660473334673952
aF1.0116674211531063
ag174
ag174
aF6.831965291141387
aF0.29197224441850267
aF0.14655572760375435
aF0.9801239323141999
ag174
ag174
aF6.997269410672743
aF0.29755539679536014
aF0.15194288676684664
aF0.9954697396933625
ag174
ag174
aF6.997269410672743
aF0.29755539679536014
aF0.15194288676684664
aF0.9954697396933625
ag174
ag174
aF6.997269410672743
aF0.29755539679536014
aF0.15194288676684664
aF0.9954697396933625
ag174
ag174
aF6.997269410672743
aF0.29755539679536014
aF0.15194288676684664
aF0.9954697396933625
ag174
ag174
aF6.997269410672743
aF0.29755539679536014
aF0.15194288676684664
aF0.9954697396933625
ag174
ag174
aF6.997269410672743
aF0.29755539679536014
aF0.15194288676684664
aF0.9954697396933625
ag174
ag174
aF6.997269410672743
aF0.29755539679536014
aF0.15194288676684664
aF0.9954697396933625
ag174
ag174
aF6.997269410672743
aF0.29755539679536014
aF0.15194288676684664
aF0.9954697396933625
ag174
ag174
aF6.997269410672743
aF0.29755539679536014
aF0.15194288676684664
aF0.9954697396933625
ag174
ag174
aF6.997269410672743
aF0.29755539679536014
aF0.15194288676684664
aF0.9954697396933625
ag174
ag174
aF6.997269410672743
aF0.29755539679536014
aF0.15194288676684664
aF0.9954697396933625
ag174
ag174
aF6.997269410672743
aF0.29755539679536014
aF0.15194288676684664
aF0.9954697396933625
ag174
ag174
aF6.997269410672743
aF0.29755539679536014
aF0.15194288676684664
aF0.9954697396933625
ag174
ag174
aF6.997269410672743
aF0.29755539679536014
aF0.15194288676684664
aF0.9954697396933625
ag174
ag174
aF6.608564773541626
aF0.3049127085854938
aF0.15855667844525534
aF1.0279662833296144
ag174
ag174
aF5.934135620260207
aF0.2664297194602506
aF0.13365295398672
aF0.8834229518976627
ag174
ag174
aF6.608564773541626
aF0.3049127085854938
aF0.15855667844525534
aF1.0279662833296144
ag174
ag174
aF5.934135620260207
aF0.2664297194602506
aF0.13365295398672
aF0.8834229518976627
ag174
ag174
aF6.494161376442641
aF0.30192431014806576
aF0.15842726742288887
aF1.024759875410523
ag174
ag174
aF6.048538859028771
aF0.2694181132103163
aF0.1337823648660712
aF0.8866293515525162
ag174
ag174
aF6.494161376442641
aF0.30192431014806576
aF0.15842726742288887
aF1.024759875410523
ag174
ag174
aF6.048538859028771
aF0.2694181132103163
aF0.1337823648660712
aF0.8866293515525162
ag174
ag174
aF6.405131527324854
aF0.29530143070434545
aF0.15293213814244735
aF1.0063097607764282
ag174
ag174
aF6.137568943487388
aF0.2760410077992254
aF0.13927750473840173
aF0.9050795166738791
ag174
ag174
aF6.405131527324854
aF0.29530143070434545
aF0.15293213814244735
aF1.0063097607764282
ag174
ag174
aF6.137568943487388
aF0.2760410077992254
aF0.13927750473840173
aF0.9050795166738791
ag174
ag174
aF6.346573855955284
aF0.30942256565667137
aF0.16936105323003992
aF1.0493353139430868
ag174
ag174
aF6.199417324566869
aF0.26740339010602804
aF0.12293534590024496
aF0.8644526388821518
ag174
ag174
aF6.346573855955284
aF0.30942256565667137
aF0.16936105323003992
aF1.0493353139430868
ag174
ag174
aF6.199417324566869
aF0.26740339010602804
aF0.12293534590024496
aF0.8644526388821518
ag174
ag174
aF6.687740732777812
aF0.29755539679536014
aF0.15194288676684664
aF0.9954419309951845
ag174
ag174
aF6.687740732777812
aF0.29755539679536014
aF0.15194288676684664
aF0.9954419309951845
ag174
ag174
aF6.687740732777812
aF0.29755539679536014
aF0.15194288676684664
aF0.9954419309951845
ag174
ag174
aF6.687740732777812
aF0.29755539679536014
aF0.15194288676684664
aF0.9954419309951845
ag174
ag174
aF6.687740732777812
aF0.29755539679536014
aF0.15194288676684664
aF0.9954419309951845
ag174
ag174
aF6.687740732777812
aF0.29755539679536014
aF0.15194288676684664
aF0.9954419309951845
ag174
ag174
aF6.687740732777812
aF0.29755539679536014
aF0.15194288676684664
aF0.9954419309951845
ag174
ag174
aF6.687740732777812
aF0.29755539679536014
aF0.15194288676684664
aF0.9954419309951845
ag174
ag174
aF6.389539173003782
aF0.2988157094276359
aF0.15374598342628434
aF0.9968194448448956
ag174
ag174
aF6.156452001366234
aF0.27801024447730266
aF0.1385504143534251
aF0.9169684958621166
ag174
ag174
aF6.389539173003782
aF0.2988157094276359
aF0.15374598342628434
aF0.9968194448448956
ag174
ag174
aF6.156452001366234
aF0.27801024447730266
aF0.1385504143534251
aF0.9169684958621166
ag174
ag174
aF6.3618725573496615
aF0.30073420780212806
aF0.15743293274450862
aF1.0043370353697212
ag174
ag174
aF6.184118731258316
aF0.276091750965395
aF0.1348634676694077
aF0.9094509288334467
ag174
ag174
aF6.3618725573496615
aF0.30073420780212806
aF0.15743293274450862
aF1.0043370353697212
ag174
ag174
aF6.184118731258316
aF0.276091750965395
aF0.1348634676694077
aF0.9094509288334467
ag174
ag174
aF6.55176858924174
aF0.2993094348452682
aF0.15422453237042336
aF0.9985928157627659
ag174
ag174
aF6.517494982253415
aF0.2907728271737146
aF0.14552302586849283
aF0.9777271748433787
ag174
ag174
aF6.55176858924174
aF0.2993094348452682
aF0.15422453237042336
aF0.9985928157627659
ag174
ag174
aF6.517494982253415
aF0.2907728271737146
aF0.14552302586849283
aF0.9777271748433787
ag174
ag174
atp199
ba(lp200
g15
(g16
(dp201
g18
g19
(g20
(I0
tp202
g22
tp203
Rp204
(I1
(I1
tp205
g29
I00
(lp206
g43
atp207
bsg122
Nstp208
Rp209
ag15
(g16
(dp210
g18
g19
(g20
(I0
tp211
g22
tp212
Rp213
(I1
(I87
tp214
g29
I00
(lp215
g33
ag34
ag35
ag36
ag37
ag38
ag39
ag40
ag41
ag42
ag44
ag45
ag46
ag47
ag48
ag49
ag50
ag51
ag52
ag53
ag54
ag55
ag56
ag57
ag58
ag59
ag60
ag61
ag62
ag63
ag64
ag65
ag66
ag67
ag68
ag69
ag70
ag71
ag72
ag73
ag74
ag75
ag76
ag77
ag78
ag79
ag80
ag81
ag82
ag83
ag84
ag85
ag86
ag87
ag88
ag89
ag90
ag91
ag92
ag93
ag94
ag95
ag96
ag97
ag98
ag99
ag100
ag101
ag102
ag103
ag104
ag105
ag106
ag107
ag108
ag109
ag110
ag111
ag112
ag113
ag114
ag115
ag116
ag117
ag118
ag119
ag120
atp216
bsg122
Nstp217
Rp218
a(dp219
S'0.14.1'
p220
(dp221
S'axes'
p222
g14
sS'blocks'
p223
(lp224
(dp225
S'mgr_locs'
p226
c__builtin__
slice
p227
(I10
I11
I1
tp228
Rp229
sS'values'
p230
g143
sa(dp231
g226
g19
(g20
(I0
tp232
g22
tp233
Rp234
(I1
(I87
tp235
g133
I00
S'\x00\x00\x00\x00\x00\x00\x00\x00\x01\x00\x00\x00\x00\x00\x00\x00\x02\x00\x00\x00\x00\x00\x00\x00\x03\x00\x00\x00\x00\x00\x00\x00\x04\x00\x00\x00\x00\x00\x00\x00\x05\x00\x00\x00\x00\x00\x00\x00\x06\x00\x00\x00\x00\x00\x00\x00\x07\x00\x00\x00\x00\x00\x00\x00\x08\x00\x00\x00\x00\x00\x00\x00\t\x00\x00\x00\x00\x00\x00\x00\x0b\x00\x00\x00\x00\x00\x00\x00\x0c\x00\x00\x00\x00\x00\x00\x00\r\x00\x00\x00\x00\x00\x00\x00\x0e\x00\x00\x00\x00\x00\x00\x00\x0f\x00\x00\x00\x00\x00\x00\x00\x10\x00\x00\x00\x00\x00\x00\x00\x11\x00\x00\x00\x00\x00\x00\x00\x12\x00\x00\x00\x00\x00\x00\x00\x13\x00\x00\x00\x00\x00\x00\x00\x14\x00\x00\x00\x00\x00\x00\x00\x15\x00\x00\x00\x00\x00\x00\x00\x16\x00\x00\x00\x00\x00\x00\x00\x17\x00\x00\x00\x00\x00\x00\x00\x18\x00\x00\x00\x00\x00\x00\x00\x19\x00\x00\x00\x00\x00\x00\x00\x1a\x00\x00\x00\x00\x00\x00\x00\x1b\x00\x00\x00\x00\x00\x00\x00\x1c\x00\x00\x00\x00\x00\x00\x00\x1d\x00\x00\x00\x00\x00\x00\x00\x1e\x00\x00\x00\x00\x00\x00\x00\x1f\x00\x00\x00\x00\x00\x00\x00 \x00\x00\x00\x00\x00\x00\x00!\x00\x00\x00\x00\x00\x00\x00"\x00\x00\x00\x00\x00\x00\x00#\x00\x00\x00\x00\x00\x00\x00$\x00\x00\x00\x00\x00\x00\x00%\x00\x00\x00\x00\x00\x00\x00&\x00\x00\x00\x00\x00\x00\x00\'\x00\x00\x00\x00\x00\x00\x00(\x00\x00\x00\x00\x00\x00\x00)\x00\x00\x00\x00\x00\x00\x00*\x00\x00\x00\x00\x00\x00\x00+\x00\x00\x00\x00\x00\x00\x00,\x00\x00\x00\x00\x00\x00\x00-\x00\x00\x00\x00\x00\x00\x00.\x00\x00\x00\x00\x00\x00\x00/\x00\x00\x00\x00\x00\x00\x000\x00\x00\x00\x00\x00\x00\x001\x00\x00\x00\x00\x00\x00\x002\x00\x00\x00\x00\x00\x00\x003\x00\x00\x00\x00\x00\x00\x004\x00\x00\x00\x00\x00\x00\x005\x00\x00\x00\x00\x00\x00\x006\x00\x00\x00\x00\x00\x00\x007\x00\x00\x00\x00\x00\x00\x008\x00\x00\x00\x00\x00\x00\x009\x00\x00\x00\x00\x00\x00\x00:\x00\x00\x00\x00\x00\x00\x00;\x00\x00\x00\x00\x00\x00\x00<\x00\x00\x00\x00\x00\x00\x00=\x00\x00\x00\x00\x00\x00\x00>\x00\x00\x00\x00\x00\x00\x00?\x00\x00\x00\x00\x00\x00\x00@\x00\x00\x00\x00\x00\x00\x00A\x00\x00\x00\x00\x00\x00\x00B\x00\x00\x00\x00\x00\x00\x00C\x00\x00\x00\x00\x00\x00\x00D\x00\x00\x00\x00\x00\x00\x00E\x00\x00\x00\x00\x00\x00\x00F\x00\x00\x00\x00\x00\x00\x00G\x00\x00\x00\x00\x00\x00\x00H\x00\x00\x00\x00\x00\x00\x00I\x00\x00\x00\x00\x00\x00\x00J\x00\x00\x00\x00\x00\x00\x00K\x00\x00\x00\x00\x00\x00\x00L\x00\x00\x00\x00\x00\x00\x00M\x00\x00\x00\x00\x00\x00\x00N\x00\x00\x00\x00\x00\x00\x00O\x00\x00\x00\x00\x00\x00\x00P\x00\x00\x00\x00\x00\x00\x00Q\x00\x00\x00\x00\x00\x00\x00R\x00\x00\x00\x00\x00\x00\x00S\x00\x00\x00\x00\x00\x00\x00T\x00\x00\x00\x00\x00\x00\x00U\x00\x00\x00\x00\x00\x00\x00V\x00\x00\x00\x00\x00\x00\x00W\x00\x00\x00\x00\x00\x00\x00'
p236
tp237
bsg230
g154
sasstp238
bsb.