ccopy_reg
_reconstructor
p0
(cpandas.core.frame
DataFrame
p1
c__builtin__
object
p2
Ntp3
Rp4
(dp5
S'_metadata'
p6
(lp7
sS'_typ'
p8
S'dataframe'
p9
sS'_data'
p10
g0
(cpandas.core.internals
BlockManager
p11
g2
Ntp12
Rp13
((lp14
cpandas.core.indexes.base
_new_Index
p15
(cpandas.core.indexes.base
Index
p16
(dp17
S'data'
p18
cnumpy.core.multiarray
_reconstruct
p19
(cnumpy
ndarray
p20
(I0
tp21
S'b'
p22
tp23
Rp24
(I1
(I88
tp25
cnumpy
dtype
p26
(S'O8'
p27
I0
I1
tp28
Rp29
(I3
S'|'
p30
NNNI-1
I-1
I63
tp31
bI00
(lp32
S'year'
p33
aS'type'
p34
aS'procOriginal'
p35
aS'proc'
p36
aS'proc_s0'
p37
aS'cat'
p38
aS'inputWSFile'
p39
aS'nominalDataName'
p40
aS'modelWSFile'
p41
aS'model'
p42
aS'rate'
p43
aS'nominal_yield'
p44
aS'sumw2'
p45
aS'nominal_yield_COWCorr'
p46
aS'LooseMvaSF_up_yield'
p47
aS'LooseMvaSF_down_yield'
p48
aS'PreselSF_up_yield'
p49
aS'PreselSF_down_yield'
p50
aS'electronVetoSF_up_yield'
p51
aS'electronVetoSF_down_yield'
p52
aS'TriggerWeight_up_yield'
p53
aS'TriggerWeight_down_yield'
p54
aS'MuonIDWeight_up_yield'
p55
aS'MuonIDWeight_down_yield'
p56
aS'MuonIsoWeight_up_yield'
p57
aS'MuonIsoWeight_down_yield'
p58
aS'ElectronIDWeight_up_yield'
p59
aS'ElectronIDWeight_down_yield'
p60
aS'ElectronRecoWeight_up_yield'
p61
aS'ElectronRecoWeight_down_yield'
p62
aS'JetBTagCutWeight_up_yield'
p63
aS'JetBTagCutWeight_down_yield'
p64
aS'JetBTagReshapeWeight_up_yield'
p65
aS'JetBTagReshapeWeight_down_yield'
p66
aS'SigmaEOverEShift_up_yield'
p67
aS'SigmaEOverEShift_down_yield'
p68
aS'MvaShift_up_yield'
p69
aS'MvaShift_down_yield'
p70
aS'PUJIDShift_up_yield'
p71
aS'PUJIDShift_down_yield'
p72
aS'JEC_up_yield'
p73
aS'JEC_down_yield'
p74
aS'JER_up_yield'
p75
aS'JER_down_yield'
p76
aS'metJecUncertainty_up_yield'
p77
aS'metJecUncertainty_down_yield'
p78
aS'metJerUncertainty_up_yield'
p79
aS'metJerUncertainty_down_yield'
p80
aS'metPhoUncertainty_up_yield'
p81
aS'metPhoUncertainty_down_yield'
p82
aS'metUncUncertainty_up_yield'
p83
aS'metUncUncertainty_down_yield'
p84
aS'THU_ggH_Mu_up_yield'
p85
aS'THU_ggH_Mu_down_yield'
p86
aS'THU_ggH_Mu_up_yield_COWCorr'
p87
aS'THU_ggH_Mu_down_yield_COWCorr'
p88
aS'THU_ggH_Res_up_yield'
p89
aS'THU_ggH_Res_down_yield'
p90
aS'THU_ggH_Res_up_yield_COWCorr'
p91
aS'THU_ggH_Res_down_yield_COWCorr'
p92
aS'THU_ggH_Mig01_up_yield'
p93
aS'THU_ggH_Mig01_down_yield'
p94
aS'THU_ggH_Mig01_up_yield_COWCorr'
p95
aS'THU_ggH_Mig01_down_yield_COWCorr'
p96
aS'THU_ggH_Mig12_up_yield'
p97
aS'THU_ggH_Mig12_down_yield'
p98
aS'THU_ggH_Mig12_up_yield_COWCorr'
p99
aS'THU_ggH_Mig12_down_yield_COWCorr'
p100
aS'THU_ggH_VBF2j_up_yield'
p101
aS'THU_ggH_VBF2j_down_yield'
p102
aS'THU_ggH_VBF2j_up_yield_COWCorr'
p103
aS'THU_ggH_VBF2j_down_yield_COWCorr'
p104
aS'THU_ggH_VBF3j_up_yield'
p105
aS'THU_ggH_VBF3j_down_yield'
p106
aS'THU_ggH_VBF3j_up_yield_COWCorr'
p107
aS'THU_ggH_VBF3j_down_yield_COWCorr'
p108
aS'THU_ggH_PT60_up_yield'
p109
aS'THU_ggH_PT60_down_yield'
p110
aS'THU_ggH_PT60_up_yield_COWCorr'
p111
aS'THU_ggH_PT60_down_yield_COWCorr'
p112
aS'THU_ggH_PT120_up_yield'
p113
aS'THU_ggH_PT120_down_yield'
p114
aS'THU_ggH_PT120_up_yield_COWCorr'
p115
aS'THU_ggH_PT120_down_yield_COWCorr'
p116
aS'THU_ggH_qmtop_up_yield'
p117
aS'THU_ggH_qmtop_down_yield'
p118
aS'THU_ggH_qmtop_up_yield_COWCorr'
p119
aS'THU_ggH_qmtop_down_yield_COWCorr'
p120
atp121
bsS'name'
p122
Nstp123
Rp124
ag15
(cpandas.core.indexes.numeric
Int64Index
p125
(dp126
g18
g19
(g20
(I0
tp127
g22
tp128
Rp129
(I1
(I6
tp130
g26
(S'i8'
p131
I0
I1
tp132
Rp133
(I3
S'<'
p134
NNNI-1
I-1
I0
tp135
bI00
S'\x00\x00\x00\x00\x00\x00\x00\x00\x01\x00\x00\x00\x00\x00\x00\x00\x02\x00\x00\x00\x00\x00\x00\x00\x03\x00\x00\x00\x00\x00\x00\x00\x04\x00\x00\x00\x00\x00\x00\x00\x05\x00\x00\x00\x00\x00\x00\x00'
p136
tp137
bsg122
Nstp138
Rp139
a(lp140
g19
(g20
(I0
tp141
g22
tp142
Rp143
(I1
(I1
I6
tp144
g26
(S'f8'
p145
I0
I1
tp146
Rp147
(I3
S'<'
p148
NNNI-1
I-1
I0
tp149
bI00
S'\x00\x00\x00\x00\x00A\xe4@\x00\x00\x00\x00\x00A\xe4@\x00\x00\x00\x00\x00A\xe4@\x00\x00\x00\x00\x00A\xe4@\x00\x00\x00\x00\x00\x00\xf0?\x00\x00\x00\x00\x00\x00\xf0\xbf'
p150
tp151
bag19
(g20
(I0
tp152
g22
tp153
Rp154
(I1
(I87
I6
tp155
g29
I00
(lp156
S'2017'
p157
ag157
ag157
ag157
ag33
ag33
aS'sig'
p158
ag158
ag158
ag158
aS'bkg'
p159
ag18
aS'GG2H'
p160
aS'QQ2HLNU'
p161
aS'TTH'
p162
aS'VBF'
p163
aS'bkg_mass'
p164
aS'data_obs'
p165
aS'ggH_2017_hgg'
p166
aS'WH_lep_2017_hgg'
p167
aS'ttH_2017_hgg'
p168
aS'qqH_2017_hgg'
p169
ag164
ag165
aS'ggh'
p170
aS'wh'
p171
aS'tth'
p172
aS'vbf'
p173
aS'-'
p174
ag174
aS'UntaggedTag_0_2017'
p175
aS'UntaggedTag_0_2017'
p176
aS'UntaggedTag_0_2017'
p177
aS'UntaggedTag_0_2017'
p178
aS'UntaggedTag_0_2017'
p179
ag179
aS'/eos/home-n/nschroed/Higgs_Mass_UL/WorkspaceTest/Pass2/2017/Sig/workspaces/output_GluGluHToGG_M125_TuneCP5_13TeV-amcatnloFXFX-pythia8_GG2H.root'
p180
aS'/eos/home-n/nschroed/Higgs_Mass_UL/WorkspaceTest/Pass2/2017/Sig/workspaces/output_WHToGG_M125_TuneCP5_13TeV-amcatnloFXFX-madspin-pythia8_QQ2HLNU.root'
p181
aS'/eos/home-n/nschroed/Higgs_Mass_UL/WorkspaceTest/Pass2/2017/Sig/workspaces/output_ttHJetToGG_M125_TuneCP5_13TeV-amcatnloFXFX-madspin-pythia8_TTH.root'
p182
aS'/eos/home-n/nschroed/Higgs_Mass_UL/WorkspaceTest/Pass2/2017/Sig/workspaces/output_VBFHToGG_M125_TuneCP5_13TeV-amcatnlo-pythia8_VBF.root'
p183
ag174
ag174
aS'ggh_125_13TeV_UntaggedTag_0'
p184
aS'wh_125_13TeV_UntaggedTag_0'
p185
aS'tth_125_13TeV_UntaggedTag_0'
p186
aS'vbf_125_13TeV_UntaggedTag_0'
p187
ag174
ag174
aS'./Models/signal/CMS-HGG_sigfit_packaged_UntaggedTag_0_2017.root'
p188
aS'./Models/signal/CMS-HGG_sigfit_packaged_UntaggedTag_0_2017.root'
p189
aS'./Models/signal/CMS-HGG_sigfit_packaged_UntaggedTag_0_2017.root'
p190
aS'./Models/signal/CMS-HGG_sigfit_packaged_UntaggedTag_0_2017.root'
p191
aS'./Models/background/CMS-HGG_multipdf_UntaggedTag_0_2017.root'
p192
ag192
aS'wsig_13TeV:hggpdfsmrel_GG2H_2017_UntaggedTag_0_13TeV'
p193
aS'wsig_13TeV:hggpdfsmrel_QQ2HLNU_2017_UntaggedTag_0_13TeV'
p194
aS'wsig_13TeV:hggpdfsmrel_TTH_2017_UntaggedTag_0_13TeV'
p195
aS'wsig_13TeV:hggpdfsmrel_VBF_2017_UntaggedTag_0_13TeV'
p196
aS'multipdf:CMS_hgg_UntaggedTag_0_2017_13TeV_bkgshape'
p197
aS'multipdf:roohist_data_mass_UntaggedTag_0'
p198
aF0.9141856682031175
aF0.11248173934109218
aF0.08738499217133722
aF0.35554432252365586
ag174
ag174
aF0.00014393684937719707
aF3.7489046084900043e-06
aF2.2451525361017527e-06
aF1.5629815960796396e-05
ag174
ag174
aF0.9141856682031175
aF0.11248173934109218
aF0.08738499217133722
aF0.35554432252365586
ag174
ag174
aF0.6309624378585349
aF0.10928229561928282
aF0.08498458627536717
aF0.3454586029881889
ag174
ag174
aF0.6222159546705973
aF0.10778586838002945
aF0.08378296025907908
aF0.3406700327124867
ag174
ag174
aF0.6354759195129117
aF0.10999751702009326
aF0.08552758973130598
aF0.3478501345966495
ag174
ag174
aF0.617749032241959
aF0.10707793101898849
aF0.08324537269964781
aF0.3383038191558604
ag174
ag174
aF0.6281463243107842
aF0.10882161364630939
aF0.08458085791699038
aF0.34392699009148664
ag174
ag174
aF0.6250186610334936
aF0.1082443638750293
aF0.08418476520284261
aF0.34219438857439416
ag174
ag174
aF0.6281573864030395
aF0.10881643286370456
aF0.08458558210026465
aF0.3439272111856676
ag174
ag174
aF0.6250075361839038
aF0.10824948756671104
aF0.084180050531302
aF0.3421940690193436
ag174
ag174
aF0.9141856682031175
aF0.11248173934109218
aF0.08738499217133722
aF0.35554432252365586
ag174
ag174
aF0.9141856682031175
aF0.11248173934109218
aF0.08738499217133722
aF0.35554432252365586
ag174
ag174
aF0.9141856682031175
aF0.11248173934109218
aF0.08738499217133722
aF0.35554432252365586
ag174
ag174
aF0.9141856682031175
aF0.11248173934109218
aF0.08738499217133722
aF0.35554432252365586
ag174
ag174
aF0.9141856682031175
aF0.11248173934109218
aF0.08738499217133722
aF0.35554432252365586
ag174
ag174
aF0.9141856682031175
aF0.11248173934109218
aF0.08738499217133722
aF0.35554432252365586
ag174
ag174
aF0.9141856682031175
aF0.11248173934109218
aF0.08738499217133722
aF0.35554432252365586
ag174
ag174
aF0.9141856682031175
aF0.11248173934109218
aF0.08738499217133722
aF0.35554432252365586
ag174
ag174
aF0.9141856682031175
aF0.11248173934109218
aF0.08738499217133722
aF0.35554432252365586
ag174
ag174
aF0.9141856682031175
aF0.11248173934109218
aF0.08738499217133722
aF0.35554432252365586
ag174
ag174
aF0.9141856682031175
aF0.11248173934109218
aF0.08738499217133722
aF0.35554432252365586
ag174
ag174
aF0.9141856682031175
aF0.11248173934109218
aF0.08738499217133722
aF0.35554432252365586
ag174
ag174
aF1.3644911524024792
aF0.11104430204522941
aF0.08672976311527236
aF0.3514000441659846
ag174
ag174
aF1.39462985778664
aF0.11391754302712798
aF0.08811930909041621
aF0.3589726584755226
ag174
ag174
aF1.4029917894658865
aF0.11445691464996344
aF0.08978518059484486
aF0.36131727791189405
ag174
ag174
aF1.3548649396034307
aF0.11035075608833722
aF0.08523411325404595
aF0.3496224082941808
ag174
ag174
aF1.3799475312844152
aF0.11248173934109218
aF0.08738499217133722
aF0.35555889196393764
ag174
ag174
aF1.3799475312844152
aF0.11248173934109218
aF0.08738499217133722
aF0.35555889196393764
ag174
ag174
aF1.3799475312844152
aF0.11248173934109218
aF0.08738499217133722
aF0.35555889196393764
ag174
ag174
aF1.3799475312844152
aF0.11248173934109218
aF0.08738499217133722
aF0.35555889196393764
ag174
ag174
aF1.3799475312844152
aF0.11248173934109218
aF0.08738499217133722
aF0.35555889196393764
ag174
ag174
aF1.3799475312844152
aF0.11248173934109218
aF0.08738499217133722
aF0.35555889196393764
ag174
ag174
aF1.3799475312844152
aF0.11248173934109218
aF0.08738499217133722
aF0.35555889196393764
ag174
ag174
aF1.3799475312844152
aF0.11248173934109218
aF0.08738499217133722
aF0.35555889196393764
ag174
ag174
aF1.3799475312844152
aF0.11248173934109218
aF0.08738499217133722
aF0.35555889196393764
ag174
ag174
aF1.3799475312844152
aF0.11248173934109218
aF0.08738499217133722
aF0.35555889196393764
ag174
ag174
aF1.3799475312844152
aF0.11248173934109218
aF0.08738499217133722
aF0.35555889196393764
ag174
ag174
aF1.3799475312844152
aF0.11248173934109218
aF0.08738499217133722
aF0.35555889196393764
ag174
ag174
aF1.3799475312844152
aF0.11248173934109218
aF0.08738499217133722
aF0.35555889196393764
ag174
ag174
aF1.3799475312844152
aF0.11248173934109218
aF0.08738499217133722
aF0.35555889196393764
ag174
ag174
aF0.6728201044057678
aF0.11644407425298799
aF0.09161322023321418
aF0.37109692356103896
ag174
ag174
aF0.5803428362072915
aF0.10062146533968516
aF0.07715216226629695
aF0.31502323291201173
ag174
ag174
aF0.6728201044057678
aF0.11644407425298799
aF0.09161322023321418
aF0.37109692356103896
ag174
ag174
aF0.5803428362072915
aF0.10062146533968516
aF0.07715216226629695
aF0.31502323291201173
ag174
ag174
aF0.6709959007181121
aF0.11558761554624841
aF0.09155346602663027
aF0.3706271306222756
ag174
ag174
aF0.5821670399166345
aF0.10147792295866796
aF0.07721191666435914
aF0.31549302762486486
ag174
ag174
aF0.6709959007181121
aF0.11558761554624841
aF0.09155346602663027
aF0.3706271306222756
ag174
ag174
aF0.5821670399166345
aF0.10147792295866796
aF0.07721191666435914
aF0.31549302762486486
ag174
ag174
aF0.6633382506604915
aF0.11241607037628094
aF0.08832506548602487
aF0.3605758845585307
ag174
ag174
aF0.5898247120084303
aF0.10464947574220788
aF0.080440325376883
aF0.3255443010327785
ag174
ag174
aF0.6633382506604915
aF0.11241607037628094
aF0.08832506548602487
aF0.3605758845585307
ag174
ag174
aF0.5898247120084303
aF0.10464947574220788
aF0.080440325376883
aF0.3255443010327785
ag174
ag174
aF0.6762882997413026
aF0.12036013273423507
aF0.09802162631131593
aF0.38892531682272513
ag174
ag174
aF0.5768602791000037
aF0.09813061514198143
aF0.07076458928019225
aF0.2971948484117755
ag174
ag174
aF0.6762882997413026
aF0.12036013273423507
aF0.09802162631131593
aF0.38892531682272513
ag174
ag174
aF0.5768602791000037
aF0.09813061514198143
aF0.07076458928019225
aF0.2971948484117755
ag174
ag174
aF0.9141856682031175
aF0.11248173934109218
aF0.08738499217133722
aF0.35554432252365586
ag174
ag174
aF0.9141856682031175
aF0.11248173934109218
aF0.08738499217133722
aF0.35554432252365586
ag174
ag174
aF0.9141856682031175
aF0.11248173934109218
aF0.08738499217133722
aF0.35554432252365586
ag174
ag174
aF0.9141856682031175
aF0.11248173934109218
aF0.08738499217133722
aF0.35554432252365586
ag174
ag174
aF0.9141856682031175
aF0.11248173934109218
aF0.08738499217133722
aF0.35554432252365586
ag174
ag174
aF0.9141856682031175
aF0.11248173934109218
aF0.08738499217133722
aF0.35554432252365586
ag174
ag174
aF0.9141856682031175
aF0.11248173934109218
aF0.08738499217133722
aF0.35554432252365586
ag174
ag174
aF0.9141856682031175
aF0.11248173934109218
aF0.08738499217133722
aF0.35554432252365586
ag174
ag174
aF0.6853971198963547
aF0.11775313147621051
aF0.09236706828352396
aF0.37507189788829226
ag174
ag174
aF0.5677514585819327
aF0.10073761944017208
aF0.07641915045361208
aF0.31104827852563116
ag174
ag174
aF0.6853971198963547
aF0.11775313147621051
aF0.09236706828352396
aF0.37507189788829226
ag174
ag174
aF0.5677514585819327
aF0.10073761944017208
aF0.07641915045361208
aF0.31104827852563116
ag174
ag174
aF0.7088869484632546
aF0.12134036579199915
aF0.09582484373769448
aF0.38882287791861975
ag174
ag174
aF0.5442616301870702
aF0.09715038437403728
aF0.07296137429715464
aF0.2972972954423847
ag174
ag174
aF0.7088869484632546
aF0.12134036579199915
aF0.09582484373769448
aF0.38882287791861975
ag174
ag174
aF0.5442616301870702
aF0.09715038437403728
aF0.07296137429715464
aF0.2972972954423847
ag174
ag174
aF0.6934631816111084
aF0.11948069186482253
aF0.09403319006857193
aF0.3708133269180495
ag174
ag174
aF0.6213221697541456
aF0.0986915464755305
aF0.07538482013750192
aF0.31982500200217506
ag174
ag174
aF0.6934631816111084
aF0.11948069186482253
aF0.09403319006857193
aF0.3708133269180495
ag174
ag174
aF0.6213221697541456
aF0.0986915464755305
aF0.07538482013750192
aF0.31982500200217506
ag174
ag174
atp199
ba(lp200
g15
(g16
(dp201
g18
g19
(g20
(I0
tp202
g22
tp203
Rp204
(I1
(I1
tp205
g29
I00
(lp206
g43
atp207
bsg122
Nstp208
Rp209
ag15
(g16
(dp210
g18
g19
(g20
(I0
tp211
g22
tp212
Rp213
(I1
(I87
tp214
g29
I00
(lp215
g33
ag34
ag35
ag36
ag37
ag38
ag39
ag40
ag41
ag42
ag44
ag45
ag46
ag47
ag48
ag49
ag50
ag51
ag52
ag53
ag54
ag55
ag56
ag57
ag58
ag59
ag60
ag61
ag62
ag63
ag64
ag65
ag66
ag67
ag68
ag69
ag70
ag71
ag72
ag73
ag74
ag75
ag76
ag77
ag78
ag79
ag80
ag81
ag82
ag83
ag84
ag85
ag86
ag87
ag88
ag89
ag90
ag91
ag92
ag93
ag94
ag95
ag96
ag97
ag98
ag99
ag100
ag101
ag102
ag103
ag104
ag105
ag106
ag107
ag108
ag109
ag110
ag111
ag112
ag113
ag114
ag115
ag116
ag117
ag118
ag119
ag120
atp216
bsg122
Nstp217
Rp218
a(dp219
S'0.14.1'
p220
(dp221
S'axes'
p222
g14
sS'blocks'
p223
(lp224
(dp225
S'mgr_locs'
p226
c__builtin__
slice
p227
(I10
I11
I1
tp228
Rp229
sS'values'
p230
g143
sa(dp231
g226
g19
(g20
(I0
tp232
g22
tp233
Rp234
(I1
(I87
tp235
g133
I00
S'\x00\x00\x00\x00\x00\x00\x00\x00\x01\x00\x00\x00\x00\x00\x00\x00\x02\x00\x00\x00\x00\x00\x00\x00\x03\x00\x00\x00\x00\x00\x00\x00\x04\x00\x00\x00\x00\x00\x00\x00\x05\x00\x00\x00\x00\x00\x00\x00\x06\x00\x00\x00\x00\x00\x00\x00\x07\x00\x00\x00\x00\x00\x00\x00\x08\x00\x00\x00\x00\x00\x00\x00\t\x00\x00\x00\x00\x00\x00\x00\x0b\x00\x00\x00\x00\x00\x00\x00\x0c\x00\x00\x00\x00\x00\x00\x00\r\x00\x00\x00\x00\x00\x00\x00\x0e\x00\x00\x00\x00\x00\x00\x00\x0f\x00\x00\x00\x00\x00\x00\x00\x10\x00\x00\x00\x00\x00\x00\x00\x11\x00\x00\x00\x00\x00\x00\x00\x12\x00\x00\x00\x00\x00\x00\x00\x13\x00\x00\x00\x00\x00\x00\x00\x14\x00\x00\x00\x00\x00\x00\x00\x15\x00\x00\x00\x00\x00\x00\x00\x16\x00\x00\x00\x00\x00\x00\x00\x17\x00\x00\x00\x00\x00\x00\x00\x18\x00\x00\x00\x00\x00\x00\x00\x19\x00\x00\x00\x00\x00\x00\x00\x1a\x00\x00\x00\x00\x00\x00\x00\x1b\x00\x00\x00\x00\x00\x00\x00\x1c\x00\x00\x00\x00\x00\x00\x00\x1d\x00\x00\x00\x00\x00\x00\x00\x1e\x00\x00\x00\x00\x00\x00\x00\x1f\x00\x00\x00\x00\x00\x00\x00 \x00\x00\x00\x00\x00\x00\x00!\x00\x00\x00\x00\x00\x00\x00"\x00\x00\x00\x00\x00\x00\x00#\x00\x00\x00\x00\x00\x00\x00$\x00\x00\x00\x00\x00\x00\x00%\x00\x00\x00\x00\x00\x00\x00&\x00\x00\x00\x00\x00\x00\x00\'\x00\x00\x00\x00\x00\x00\x00(\x00\x00\x00\x00\x00\x00\x00)\x00\x00\x00\x00\x00\x00\x00*\x00\x00\x00\x00\x00\x00\x00+\x00\x00\x00\x00\x00\x00\x00,\x00\x00\x00\x00\x00\x00\x00-\x00\x00\x00\x00\x00\x00\x00.\x00\x00\x00\x00\x00\x00\x00/\x00\x00\x00\x00\x00\x00\x000\x00\x00\x00\x00\x00\x00\x001\x00\x00\x00\x00\x00\x00\x002\x00\x00\x00\x00\x00\x00\x003\x00\x00\x00\x00\x00\x00\x004\x00\x00\x00\x00\x00\x00\x005\x00\x00\x00\x00\x00\x00\x006\x00\x00\x00\x00\x00\x00\x007\x00\x00\x00\x00\x00\x00\x008\x00\x00\x00\x00\x00\x00\x009\x00\x00\x00\x00\x00\x00\x00:\x00\x00\x00\x00\x00\x00\x00;\x00\x00\x00\x00\x00\x00\x00<\x00\x00\x00\x00\x00\x00\x00=\x00\x00\x00\x00\x00\x00\x00>\x00\x00\x00\x00\x00\x00\x00?\x00\x00\x00\x00\x00\x00\x00@\x00\x00\x00\x00\x00\x00\x00A\x00\x00\x00\x00\x00\x00\x00B\x00\x00\x00\x00\x00\x00\x00C\x00\x00\x00\x00\x00\x00\x00D\x00\x00\x00\x00\x00\x00\x00E\x00\x00\x00\x00\x00\x00\x00F\x00\x00\x00\x00\x00\x00\x00G\x00\x00\x00\x00\x00\x00\x00H\x00\x00\x00\x00\x00\x00\x00I\x00\x00\x00\x00\x00\x00\x00J\x00\x00\x00\x00\x00\x00\x00K\x00\x00\x00\x00\x00\x00\x00L\x00\x00\x00\x00\x00\x00\x00M\x00\x00\x00\x00\x00\x00\x00N\x00\x00\x00\x00\x00\x00\x00O\x00\x00\x00\x00\x00\x00\x00P\x00\x00\x00\x00\x00\x00\x00Q\x00\x00\x00\x00\x00\x00\x00R\x00\x00\x00\x00\x00\x00\x00S\x00\x00\x00\x00\x00\x00\x00T\x00\x00\x00\x00\x00\x00\x00U\x00\x00\x00\x00\x00\x00\x00V\x00\x00\x00\x00\x00\x00\x00W\x00\x00\x00\x00\x00\x00\x00'
p236
tp237
bsg230
g154
sasstp238
bsb.