ccopy_reg
_reconstructor
p0
(cpandas.core.frame
DataFrame
p1
c__builtin__
object
p2
Ntp3
Rp4
(dp5
S'_metadata'
p6
(lp7
sS'_typ'
p8
S'dataframe'
p9
sS'_data'
p10
g0
(cpandas.core.internals
BlockManager
p11
g2
Ntp12
Rp13
((lp14
cpandas.core.indexes.base
_new_Index
p15
(cpandas.core.indexes.base
Index
p16
(dp17
S'data'
p18
cnumpy.core.multiarray
_reconstruct
p19
(cnumpy
ndarray
p20
(I0
tp21
S'b'
p22
tp23
Rp24
(I1
(I14
tp25
cnumpy
dtype
p26
(S'O8'
p27
I0
I1
tp28
Rp29
(I3
S'|'
p30
NNNI-1
I-1
I63
tp31
bI00
(lp32
S'year'
p33
aS'type'
p34
aS'procOriginal'
p35
aS'proc'
p36
aS'proc_s0'
p37
aS'cat'
p38
aS'inputWSFile'
p39
aS'nominalDataName'
p40
aS'modelWSFile'
p41
aS'model'
p42
aS'rate'
p43
aS'nominal_yield'
p44
aS'sumw2'
p45
aS'nominal_yield_COWCorr'
p46
atp47
bsS'name'
p48
Nstp49
Rp50
ag15
(cpandas.core.indexes.numeric
Int64Index
p51
(dp52
g18
g19
(g20
(I0
tp53
g22
tp54
Rp55
(I1
(I2
tp56
g26
(S'i8'
p57
I0
I1
tp58
Rp59
(I3
S'<'
p60
NNNI-1
I-1
I0
tp61
bI00
S'\x00\x00\x00\x00\x00\x00\x00\x00\x01\x00\x00\x00\x00\x00\x00\x00'
p62
tp63
bsg48
Nstp64
Rp65
a(lp66
g19
(g20
(I0
tp67
g22
tp68
Rp69
(I1
(I1
I2
tp70
g26
(S'f8'
p71
I0
I1
tp72
Rp73
(I3
S'<'
p74
NNNI-1
I-1
I0
tp75
bI00
S'\x00\x00\x00\x00\x00\x00\xf0?\x00\x00\x00\x00\x00\x00\xf0\xbf'
p76
tp77
bag19
(g20
(I0
tp78
g22
tp79
Rp80
(I1
(I13
I2
tp81
g29
I00
(lp82
g33
ag33
aS'bkg'
p83
ag18
aS'bkg_mass'
p84
aS'data_obs'
p85
ag84
ag85
aS'-'
p86
ag86
aS'VBFTag_0_2017'
p87
ag87
ag86
ag86
ag86
ag86
aS'./Models/background/CMS-HGG_multipdf_VBFTag_0_2017.root'
p88
ag88
aS'multipdf:CMS_hgg_VBFTag_0_2017_13TeV_bkgshape'
p89
aS'multipdf:roohist_data_mass_VBFTag_0'
p90
ag86
ag86
ag86
ag86
ag86
ag86
atp91
ba(lp92
g15
(g16
(dp93
g18
g19
(g20
(I0
tp94
g22
tp95
Rp96
(I1
(I1
tp97
g29
I00
(lp98
g43
atp99
bsg48
Nstp100
Rp101
ag15
(g16
(dp102
g18
g19
(g20
(I0
tp103
g22
tp104
Rp105
(I1
(I13
tp106
g29
I00
(lp107
g33
ag34
ag35
ag36
ag37
ag38
ag39
ag40
ag41
ag42
ag44
ag45
ag46
atp108
bsg48
Nstp109
Rp110
a(dp111
S'0.14.1'
p112
(dp113
S'axes'
p114
g14
sS'blocks'
p115
(lp116
(dp117
S'mgr_locs'
p118
c__builtin__
slice
p119
(I10
I11
I1
tp120
Rp121
sS'values'
p122
g69
sa(dp123
g118
g19
(g20
(I0
tp124
g22
tp125
Rp126
(I1
(I13
tp127
g59
I00
S'\x00\x00\x00\x00\x00\x00\x00\x00\x01\x00\x00\x00\x00\x00\x00\x00\x02\x00\x00\x00\x00\x00\x00\x00\x03\x00\x00\x00\x00\x00\x00\x00\x04\x00\x00\x00\x00\x00\x00\x00\x05\x00\x00\x00\x00\x00\x00\x00\x06\x00\x00\x00\x00\x00\x00\x00\x07\x00\x00\x00\x00\x00\x00\x00\x08\x00\x00\x00\x00\x00\x00\x00\t\x00\x00\x00\x00\x00\x00\x00\x0b\x00\x00\x00\x00\x00\x00\x00\x0c\x00\x00\x00\x00\x00\x00\x00\r\x00\x00\x00\x00\x00\x00\x00'
p128
tp129
bsg122
g80
sasstp130
bsb.